(dp0
S'CoHOG'
p1
F0.5491175651550293
sS'HybridNet'
p2
F4.390728861460957
sS'RegionVLAD'
p3
F4.291695914833602
sS'HOG'
p4
F0.611655205488205
sS'NetVLAD'
p5
F2.6452831029891968
sS'AMOSNet'
p6
F5.655663415387153
sS'AlexNet_VPR'
p7
F1.0057233045917138
sS'CALC'
p8
F0.35298436880111694
s.