(dp0
S'CoHOG'
p1
F4.4128111600875854
sS'HybridNet'
p2
F27.244478455188528
sS'RegionVLAD'
p3
F29.013732344031688
sS'HOG'
p4
F9.314744800329208
sS'NetVLAD'
p5
F17.601539760828018
sS'AMOSNet'
p6
F27.665962375280742
sS'AlexNet_VPR'
p7
F12.309382085976871
sS'CALC'
p8
F3.573707342147827
s.